target datalayout = "e-m:e-p270:32:32-p271:32:32-p272:64:64-i64:64-i128:128-f80:128-n8:16:32:64-S128"
target triple = "x86_64-pc-linux-gnu"

%struct._value_string_ext = type { ptr, i32, i32, ptr, ptr }
%struct._packet_info = type { ptr, ptr, i32, i32, %struct.nstime_t, %struct.nstime_t, %struct.nstime_t, i8, ptr, ptr, ptr, ptr, %struct._address, %struct._address, %struct._address, %struct._address, %struct._address, %struct._address, i32, ptr, i8, [3 x i8], %struct.anon, i32, i32, i32, i32, ptr, i8, ptr, ptr, i16, i16, i32, i32, i16, i32, i32, ptr, ptr, ptr, i8, i8, i16, i16, i16, i32, i16, i16, ptr, ptr, ptr, ptr, ptr, i32, i32 }
%struct.nstime_t = type { i64, i32 }
%struct._address = type { i32, i32, ptr, ptr }
%struct.anon = type { i8, [3 x i8] }

@ppp_vals_ext = hidden global %struct._value_string_ext { ptr @_try_val_to_str_ext_init, i32 0, i32 133, ptr @ppp_vals, ptr @.str.6 }, align 8
@ppp_subdissector_table = internal global ptr null, align 8
@ett_vsnp = internal global i32 0, align 4
@hf_vsnp_3gpp_pdnid = internal global i32 0, align 4
@proto_vsnp = internal global i32 0, align 4
@.str.692 = private unnamed_addr constant [8 x i8] c"Unknown\00", align 1
@.str.995 = private unnamed_addr constant [7 x i8] c"0x%04x\00", align 1
@.str.996 = private unnamed_addr constant [16 x i8] c"PPP %s (0x%04x)\00", align 1
@vsnp_oui = internal global i32 -1, align 4
@.str.1373 = private unnamed_addr constant [5 x i8] c"VSNP\00", align 1
@.str.1374 = private unnamed_addr constant [29 x i8] c"Broadband Forum Session Data\00", align 1
@.str.1375 = private unnamed_addr constant [18 x i8] c"3GPP Session Data\00", align 1

; Function Attrs: null_pointer_is_valid sspstrong uwtable
define internal i32 @dissect_vsnp(ptr noundef %0, ptr noundef %1, ptr noundef %2, ptr noundef %3) #1 {
  %5 = alloca ptr, align 8
  %6 = alloca ptr, align 8
  %7 = alloca ptr, align 8
  %8 = alloca ptr, align 8
  %9 = alloca ptr, align 8
  %10 = alloca ptr, align 8
  %11 = alloca i32, align 4
  %12 = alloca ptr, align 8
  store ptr %0, ptr %5, align 8
  store ptr %1, ptr %6, align 8
  store ptr %2, ptr %7, align 8
  store ptr %3, ptr %8, align 8
  call void @llvm.lifetime.start.p0(i64 8, ptr %9) #6
  call void @llvm.lifetime.start.p0(i64 8, ptr %10) #6
  call void @llvm.lifetime.start.p0(i64 4, ptr %11) #6
  store i32 0, ptr %11, align 4
  %13 = load ptr, ptr %6, align 8
  %14 = getelementptr inbounds nuw %struct._packet_info, ptr %13, i32 0, i32 1
  %15 = load ptr, ptr %14, align 8
  call void @col_set_str(ptr noundef %15, i32 noundef 35, ptr noundef @.str.1373)
  %16 = load ptr, ptr %6, align 8
  %17 = getelementptr inbounds nuw %struct._packet_info, ptr %16, i32 0, i32 1
  %18 = load ptr, ptr %17, align 8
  call void @col_clear(ptr noundef %18, i32 noundef 25)
  %19 = load ptr, ptr %7, align 8
  %20 = load i32, ptr @proto_vsnp, align 4
  %21 = load ptr, ptr %5, align 8
  %22 = call ptr @proto_tree_add_item(ptr noundef %19, i32 noundef %20, ptr noundef %21, i32 noundef 0, i32 noundef -1, i32 noundef 0)
  store ptr %22, ptr %9, align 8
  %23 = load ptr, ptr %9, align 8
  %24 = load i32, ptr @ett_vsnp, align 4
  %25 = call ptr @proto_item_add_subtree(ptr noundef %23, i32 noundef %24)
  store ptr %25, ptr %10, align 8
  %26 = load i32, ptr @vsnp_oui, align 4
  switch i32 %26, label %61 [
    i32 9581, label %27
    i32 13565954, label %31
  ]

27:                                               ; preds = %4
  %28 = load ptr, ptr %6, align 8
  %29 = getelementptr inbounds nuw %struct._packet_info, ptr %28, i32 0, i32 1
  %30 = load ptr, ptr %29, align 8
  call void @col_set_str(ptr noundef %30, i32 noundef 25, ptr noundef @.str.1374)
  br label %62

31:                                               ; preds = %4
  %32 = load ptr, ptr %6, align 8
  %33 = getelementptr inbounds nuw %struct._packet_info, ptr %32, i32 0, i32 1
  %34 = load ptr, ptr %33, align 8
  call void @col_set_str(ptr noundef %34, i32 noundef 25, ptr noundef @.str.1375)
  %35 = load ptr, ptr %10, align 8
  %36 = load i32, ptr @hf_vsnp_3gpp_pdnid, align 4
  %37 = load ptr, ptr %5, align 8
  %38 = load i32, ptr %11, align 4
  %39 = call ptr @proto_tree_add_item(ptr noundef %35, i32 noundef %36, ptr noundef %37, i32 noundef %38, i32 noundef 1, i32 noundef 0)
  %40 = load ptr, ptr %5, align 8
  %41 = call ptr @tvb_new_subset_remaining(ptr noundef %40, i32 noundef 1)
  store ptr %41, ptr %12, align 8
  %42 = load ptr, ptr @ppp_subdissector_table, align 8
  %43 = load ptr, ptr %12, align 8
  %44 = load ptr, ptr %6, align 8
  %45 = load ptr, ptr %7, align 8
  %46 = call i32 @dissector_try_uint(ptr noundef %42, i32 noundef 33, ptr noundef %43, ptr noundef %44, ptr noundef %45)
  %47 = icmp ne i32 %46, 0
  br i1 %47, label %60, label %48

48:                                               ; preds = %31
  %49 = load ptr, ptr %6, align 8
  %50 = getelementptr inbounds nuw %struct._packet_info, ptr %49, i32 0, i32 1
  %51 = load ptr, ptr %50, align 8
  call void (ptr, i32, ptr, ...) @col_add_fstr(ptr noundef %51, i32 noundef 35, ptr noundef @.str.995, i32 noundef 33)
  %52 = load ptr, ptr %6, align 8
  %53 = getelementptr inbounds nuw %struct._packet_info, ptr %52, i32 0, i32 1
  %54 = load ptr, ptr %53, align 8
  %55 = call ptr @val_to_str_ext_const(i32 noundef 33, ptr noundef @ppp_vals_ext, ptr noundef @.str.692)
  call void (ptr, i32, ptr, ...) @col_add_fstr(ptr noundef %54, i32 noundef 25, ptr noundef @.str.996, ptr noundef %55, i32 noundef 33)
  %56 = load ptr, ptr %12, align 8
  %57 = load ptr, ptr %6, align 8
  %58 = load ptr, ptr %7, align 8
  %59 = call i32 @call_data_dissector(ptr noundef %56, ptr noundef %57, ptr noundef %58)
  br label %60

60:                                               ; preds = %48, %31
  br label %62

61:                                               ; preds = %4
  br label %62

62:                                               ; preds = %61, %60, %27
  %63 = load ptr, ptr %5, align 8
  %64 = call i32 @tvb_captured_length(ptr noundef %63)
  call void @llvm.lifetime.end.p0(i64 4, ptr %11) #6
  call void @llvm.lifetime.end.p0(i64 8, ptr %10) #6
  call void @llvm.lifetime.end.p0(i64 8, ptr %9) #6
  ret i32 %64
}