; Function Attrs: null_pointer_is_valid sspstrong uwtable
define internal i32 @dissect_vsnp(ptr noundef %0, ptr noundef %1, ptr noundef %2, ptr readnone captures(none) %3) #1 {
  %5 = getelementptr inbounds nuw i8, ptr %1, i64 8
  %6 = load ptr, ptr %5, align 8
  tail call void @col_set_str(ptr noundef %6, i32 noundef 35, ptr noundef nonnull @.str.1373)
  %7 = load ptr, ptr %5, align 8
  tail call void @col_clear(ptr noundef %7, i32 noundef 25)
  %8 = load i32, ptr @proto_vsnp, align 4
  %9 = tail call ptr @proto_tree_add_item(ptr noundef %2, i32 noundef %8, ptr noundef %0, i32 noundef 0, i32 noundef -1, i32 noundef 0)
  %10 = load i32, ptr @ett_vsnp, align 4
  %11 = tail call ptr @proto_item_add_subtree(ptr noundef %9, i32 noundef %10)
  %12 = load i32, ptr @vsnp_oui, align 4
  switch i32 %12, label %27 [
    i32 9581, label %13
    i32 13565954, label %15
  ]

13:                                               ; preds = %4
  %14 = load ptr, ptr %5, align 8
  tail call void @col_set_str(ptr noundef %14, i32 noundef 25, ptr noundef nonnull @.str.1374)
  br label %27

15:                                               ; preds = %4
  %16 = load ptr, ptr %5, align 8
  tail call void @col_set_str(ptr noundef %16, i32 noundef 25, ptr noundef nonnull @.str.1375)
  %17 = load i32, ptr @hf_vsnp_3gpp_pdnid, align 4
  %18 = tail call ptr @proto_tree_add_item(ptr noundef %11, i32 noundef %17, ptr noundef %0, i32 noundef 0, i32 noundef 1, i32 noundef 0)
  %19 = tail call ptr @tvb_new_subset_remaining(ptr noundef %0, i32 noundef 1)
  %20 = load ptr, ptr @ppp_subdissector_table, align 8
  %21 = tail call i32 @dissector_try_uint(ptr noundef %20, i32 noundef 33, ptr noundef %19, ptr noundef %1, ptr noundef %2)
  %.not = icmp eq i32 %21, 0
  br i1 %.not, label %22, label %27

22:                                               ; preds = %15
  %23 = load ptr, ptr %5, align 8
  tail call void (ptr, i32, ptr, ...) @col_add_fstr(ptr noundef %23, i32 noundef 35, ptr noundef nonnull @.str.995, i32 noundef 33)
  %24 = load ptr, ptr %5, align 8
  %25 = tail call ptr @val_to_str_ext_const(i32 noundef 33, ptr noundef nonnull @ppp_vals_ext, ptr noundef nonnull @.str.692)
  tail call void (ptr, i32, ptr, ...) @col_add_fstr(ptr noundef %24, i32 noundef 25, ptr noundef nonnull @.str.996, ptr noundef %25, i32 noundef 33)
  %26 = tail call i32 @call_data_dissector(ptr noundef %19, ptr noundef %1, ptr noundef %2)
  br label %27

27:                                               ; preds = %4, %15, %22, %13
  %28 = tail call i32 @tvb_captured_length(ptr noundef %0)
  ret i32 %28
}